target datalayout = "e-m:e-p270:32:32-p271:32:32-p272:64:64-i64:64-i128:128-f80:128-n8:16:32:64-S128"
target triple = "x86_64-pc-linux-gnu"

%struct.AVFilterContext = type { ptr, ptr, ptr, ptr, ptr, i32, ptr, ptr, i32, ptr, ptr, i32, i32, ptr, ptr, ptr, ptr, i32, ptr, i32, i32 }
%struct.FFTFILTContext = type { ptr, i32, i32, i32, i32, [4 x i32], [4 x i32], [32 x [4 x ptr]], [32 x [4 x ptr]], [32 x [4 x ptr]], [32 x [4 x ptr]], ptr, ptr, ptr, ptr, [4 x i32], [4 x i32], [4 x i64], [4 x i64], [4 x i64], [4 x i64], [4 x ptr], [4 x ptr], [4 x ptr], [4 x ptr], [4 x i32], [4 x ptr], [4 x ptr], [4 x ptr], ptr, ptr }

; Function Attrs: nounwind uwtable
define internal void @copy_rev(ptr noundef %0, i32 noundef %1, i32 noundef %2) #1 {
  %4 = alloca ptr, align 8
  %5 = alloca i32, align 4
  %6 = alloca i32, align 4
  %7 = alloca i32, align 4
  store ptr %0, ptr %4, align 8, !tbaa !57
  store i32 %1, ptr %5, align 4, !tbaa !24
  store i32 %2, ptr %6, align 4, !tbaa !24
  call void @llvm.lifetime.start.p0(i64 4, ptr %7) #10
  %8 = load i32, ptr %5, align 4, !tbaa !24
  store i32 %8, ptr %7, align 4, !tbaa !24
  br label %9

9:                                                ; preds = %32, %3
  %10 = load i32, ptr %7, align 4, !tbaa !24
  %11 = load i32, ptr %5, align 4, !tbaa !24
  %12 = load i32, ptr %6, align 4, !tbaa !24
  %13 = load i32, ptr %5, align 4, !tbaa !24
  %14 = sub nsw i32 %12, %13
  %15 = sdiv i32 %14, 2
  %16 = add nsw i32 %11, %15
  %17 = icmp slt i32 %10, %16
  br i1 %17, label %18, label %35

18:                                               ; preds = %9
  %19 = load ptr, ptr %4, align 8, !tbaa !57
  %20 = load i32, ptr %5, align 4, !tbaa !24
  %21 = mul nsw i32 2, %20
  %22 = load i32, ptr %7, align 4, !tbaa !24
  %23 = sub nsw i32 %21, %22
  %24 = sub nsw i32 %23, 1
  %25 = sext i32 %24 to i64
  %26 = getelementptr inbounds float, ptr %19, i64 %25
  %27 = load float, ptr %26, align 4, !tbaa !59
  %28 = load ptr, ptr %4, align 8, !tbaa !57
  %29 = load i32, ptr %7, align 4, !tbaa !24
  %30 = sext i32 %29 to i64
  %31 = getelementptr inbounds float, ptr %28, i64 %30
  store float %27, ptr %31, align 4, !tbaa !59
  br label %32

32:                                               ; preds = %18
  %33 = load i32, ptr %7, align 4, !tbaa !24
  %34 = add nsw i32 %33, 1
  store i32 %34, ptr %7, align 4, !tbaa !24
  br label %9, !llvm.loop !102

35:                                               ; preds = %9
  br label %36

36:                                               ; preds = %52, %35
  %37 = load i32, ptr %7, align 4, !tbaa !24
  %38 = load i32, ptr %6, align 4, !tbaa !24
  %39 = icmp slt i32 %37, %38
  br i1 %39, label %40, label %55

40:                                               ; preds = %36
  %41 = load ptr, ptr %4, align 8, !tbaa !57
  %42 = load i32, ptr %6, align 4, !tbaa !24
  %43 = load i32, ptr %7, align 4, !tbaa !24
  %44 = sub nsw i32 %42, %43
  %45 = sext i32 %44 to i64
  %46 = getelementptr inbounds float, ptr %41, i64 %45
  %47 = load float, ptr %46, align 4, !tbaa !59
  %48 = load ptr, ptr %4, align 8, !tbaa !57
  %49 = load i32, ptr %7, align 4, !tbaa !24
  %50 = sext i32 %49 to i64
  %51 = getelementptr inbounds float, ptr %48, i64 %50
  store float %47, ptr %51, align 4, !tbaa !59
  br label %52

52:                                               ; preds = %40
  %53 = load i32, ptr %7, align 4, !tbaa !24
  %54 = add nsw i32 %53, 1
  store i32 %54, ptr %7, align 4, !tbaa !24
  br label %36, !llvm.loop !103

55:                                               ; preds = %36
  call void @llvm.lifetime.end.p0(i64 4, ptr %7) #10
  ret void
}

; Function Attrs: nounwind uwtable
define internal i32 @copy_vertical(ptr noundef %0, ptr noundef %1, i32 noundef %2, i32 noundef %3) #1 {
  %5 = alloca ptr, align 8
  %6 = alloca ptr, align 8
  %7 = alloca i32, align 4
  %8 = alloca i32, align 4
  %9 = alloca ptr, align 8
  %10 = alloca i32, align 4
  %11 = alloca i32, align 4
  %12 = alloca i32, align 4
  %13 = alloca i32, align 4
  %14 = alloca i32, align 4
  %15 = alloca i32, align 4
  %16 = alloca i32, align 4
  %17 = alloca i32, align 4
  %18 = alloca i32, align 4
  %19 = alloca ptr, align 8
  %20 = alloca ptr, align 8
  %21 = alloca i32, align 4
  %22 = alloca i32, align 4
  store ptr %0, ptr %5, align 8, !tbaa !4
  store ptr %1, ptr %6, align 8, !tbaa !26
  store i32 %2, ptr %7, align 4, !tbaa !24
  store i32 %3, ptr %8, align 4, !tbaa !24
  call void @llvm.lifetime.start.p0(i64 8, ptr %9) #10
  %23 = load ptr, ptr %5, align 8, !tbaa !4
  %24 = getelementptr inbounds nuw %struct.AVFilterContext, ptr %23, i32 0, i32 9
  %25 = load ptr, ptr %24, align 8, !tbaa !9
  store ptr %25, ptr %9, align 8, !tbaa !22
  call void @llvm.lifetime.start.p0(i64 4, ptr %10) #10
  store i32 0, ptr %10, align 4, !tbaa !24
  br label %26

26:                                               ; preds = %137, %4
  %27 = load i32, ptr %10, align 4, !tbaa !24
  %28 = load ptr, ptr %9, align 8, !tbaa !22
  %29 = getelementptr inbounds nuw %struct.FFTFILTContext, ptr %28, i32 0, i32 3
  %30 = load i32, ptr %29, align 8, !tbaa !51
  %31 = icmp slt i32 %27, %30
  br i1 %31, label %33, label %32

32:                                               ; preds = %26
  store i32 2, ptr %11, align 4
  call void @llvm.lifetime.end.p0(i64 4, ptr %10) #10
  br label %140

33:                                               ; preds = %26
  call void @llvm.lifetime.start.p0(i64 4, ptr %12) #10
  %34 = load ptr, ptr %9, align 8, !tbaa !22
  %35 = getelementptr inbounds nuw %struct.FFTFILTContext, ptr %34, i32 0, i32 19
  %36 = load i32, ptr %10, align 4, !tbaa !24
  %37 = sext i32 %36 to i64
  %38 = getelementptr inbounds [4 x i64], ptr %35, i64 0, i64 %37
  %39 = load i64, ptr %38, align 8, !tbaa !54
  %40 = trunc i64 %39 to i32
  store i32 %40, ptr %12, align 4, !tbaa !24
  call void @llvm.lifetime.start.p0(i64 4, ptr %13) #10
  %41 = load ptr, ptr %9, align 8, !tbaa !22
  %42 = getelementptr inbounds nuw %struct.FFTFILTContext, ptr %41, i32 0, i32 20
  %43 = load i32, ptr %10, align 4, !tbaa !24
  %44 = sext i32 %43 to i64
  %45 = getelementptr inbounds [4 x i64], ptr %42, i64 0, i64 %44
  %46 = load i64, ptr %45, align 8, !tbaa !54
  %47 = trunc i64 %46 to i32
  store i32 %47, ptr %13, align 4, !tbaa !24
  call void @llvm.lifetime.start.p0(i64 4, ptr %14) #10
  %48 = load ptr, ptr %9, align 8, !tbaa !22
  %49 = getelementptr inbounds nuw %struct.FFTFILTContext, ptr %48, i32 0, i32 17
  %50 = load i32, ptr %10, align 4, !tbaa !24
  %51 = sext i32 %50 to i64
  %52 = getelementptr inbounds [4 x i64], ptr %49, i64 0, i64 %51
  %53 = load i64, ptr %52, align 8, !tbaa !54
  %54 = trunc i64 %53 to i32
  store i32 %54, ptr %14, align 4, !tbaa !24
  call void @llvm.lifetime.start.p0(i64 4, ptr %15) #10
  %55 = load ptr, ptr %9, align 8, !tbaa !22
  %56 = getelementptr inbounds nuw %struct.FFTFILTContext, ptr %55, i32 0, i32 18
  %57 = load i32, ptr %10, align 4, !tbaa !24
  %58 = sext i32 %57 to i64
  %59 = getelementptr inbounds [4 x i64], ptr %56, i64 0, i64 %58
  %60 = load i64, ptr %59, align 8, !tbaa !54
  %61 = trunc i64 %60 to i32
  store i32 %61, ptr %15, align 4, !tbaa !24
  call void @llvm.lifetime.start.p0(i64 4, ptr %16) #10
  %62 = load i32, ptr %12, align 4, !tbaa !24
  %63 = load i32, ptr %7, align 4, !tbaa !24
  %64 = mul nsw i32 %62, %63
  %65 = load i32, ptr %8, align 4, !tbaa !24
  %66 = sdiv i32 %64, %65
  store i32 %66, ptr %16, align 4, !tbaa !24
  call void @llvm.lifetime.start.p0(i64 4, ptr %17) #10
  %67 = load i32, ptr %12, align 4, !tbaa !24
  %68 = load i32, ptr %7, align 4, !tbaa !24
  %69 = add nsw i32 %68, 1
  %70 = mul nsw i32 %67, %69
  %71 = load i32, ptr %8, align 4, !tbaa !24
  %72 = sdiv i32 %70, %71
  store i32 %72, ptr %17, align 4, !tbaa !24
  call void @llvm.lifetime.start.p0(i64 4, ptr %18) #10
  %73 = load ptr, ptr %9, align 8, !tbaa !22
  %74 = getelementptr inbounds nuw %struct.FFTFILTContext, ptr %73, i32 0, i32 6
  %75 = load i32, ptr %10, align 4, !tbaa !24
  %76 = sext i32 %75 to i64
  %77 = getelementptr inbounds [4 x i32], ptr %74, i64 0, i64 %76
  %78 = load i32, ptr %77, align 4, !tbaa !24
  store i32 %78, ptr %18, align 4, !tbaa !24
  call void @llvm.lifetime.start.p0(i64 8, ptr %19) #10
  %79 = load ptr, ptr %9, align 8, !tbaa !22
  %80 = getelementptr inbounds nuw %struct.FFTFILTContext, ptr %79, i32 0, i32 23
  %81 = load i32, ptr %10, align 4, !tbaa !24
  %82 = sext i32 %81 to i64
  %83 = getelementptr inbounds [4 x ptr], ptr %80, i64 0, i64 %82
  %84 = load ptr, ptr %83, align 8, !tbaa !57
  store ptr %84, ptr %19, align 8, !tbaa !57
  call void @llvm.lifetime.start.p0(i64 8, ptr %20) #10
  %85 = load ptr, ptr %9, align 8, !tbaa !22
  %86 = getelementptr inbounds nuw %struct.FFTFILTContext, ptr %85, i32 0, i32 22
  %87 = load i32, ptr %10, align 4, !tbaa !24
  %88 = sext i32 %87 to i64
  %89 = getelementptr inbounds [4 x ptr], ptr %86, i64 0, i64 %88
  %90 = load ptr, ptr %89, align 8, !tbaa !57
  store ptr %90, ptr %20, align 8, !tbaa !57
  call void @llvm.lifetime.start.p0(i64 4, ptr %21) #10
  %91 = load i32, ptr %16, align 4, !tbaa !24
  store i32 %91, ptr %21, align 4, !tbaa !24
  br label %92

92:                                               ; preds = %133, %33
  %93 = load i32, ptr %21, align 4, !tbaa !24
  %94 = load i32, ptr %17, align 4, !tbaa !24
  %95 = icmp slt i32 %93, %94
  br i1 %95, label %97, label %96

96:                                               ; preds = %92
  store i32 5, ptr %11, align 4
  call void @llvm.lifetime.end.p0(i64 4, ptr %21) #10
  br label %136

97:                                               ; preds = %92
  call void @llvm.lifetime.start.p0(i64 4, ptr %22) #10
  store i32 0, ptr %22, align 4, !tbaa !24
  br label %98

98:                                               ; preds = %121, %97
  %99 = load i32, ptr %22, align 4, !tbaa !24
  %100 = load i32, ptr %18, align 4, !tbaa !24
  %101 = icmp slt i32 %99, %100
  br i1 %101, label %103, label %102

102:                                              ; preds = %98
  store i32 8, ptr %11, align 4
  call void @llvm.lifetime.end.p0(i64 4, ptr %22) #10
  br label %124

103:                                              ; preds = %98
  %104 = load ptr, ptr %19, align 8, !tbaa !57
  %105 = load i32, ptr %22, align 4, !tbaa !24
  %106 = load i32, ptr %14, align 4, !tbaa !24
  %107 = mul nsw i32 %105, %106
  %108 = load i32, ptr %21, align 4, !tbaa !24
  %109 = add nsw i32 %107, %108
  %110 = sext i32 %109 to i64
  %111 = getelementptr inbounds float, ptr %104, i64 %110
  %112 = load float, ptr %111, align 4, !tbaa !59
  %113 = load ptr, ptr %20, align 8, !tbaa !57
  %114 = load i32, ptr %21, align 4, !tbaa !24
  %115 = load i32, ptr %15, align 4, !tbaa !24
  %116 = mul nsw i32 %114, %115
  %117 = load i32, ptr %22, align 4, !tbaa !24
  %118 = add nsw i32 %116, %117
  %119 = sext i32 %118 to i64
  %120 = getelementptr inbounds float, ptr %113, i64 %119
  store float %112, ptr %120, align 4, !tbaa !59
  br label %121

121:                                              ; preds = %103
  %122 = load i32, ptr %22, align 4, !tbaa !24
  %123 = add nsw i32 %122, 1
  store i32 %123, ptr %22, align 4, !tbaa !24
  br label %98, !llvm.loop !77

124:                                              ; preds = %102
  %125 = load ptr, ptr %20, align 8, !tbaa !57
  %126 = load i32, ptr %21, align 4, !tbaa !24
  %127 = load i32, ptr %15, align 4, !tbaa !24
  %128 = mul nsw i32 %126, %127
  %129 = sext i32 %128 to i64
  %130 = getelementptr inbounds float, ptr %125, i64 %129
  %131 = load i32, ptr %18, align 4, !tbaa !24
  %132 = load i32, ptr %13, align 4, !tbaa !24
  call void @copy_rev(ptr noundef %130, i32 noundef %131, i32 noundef %132)
  br label %133

133:                                              ; preds = %124
  %134 = load i32, ptr %21, align 4, !tbaa !24
  %135 = add nsw i32 %134, 1
  store i32 %135, ptr %21, align 4, !tbaa !24
  br label %92, !llvm.loop !78

136:                                              ; preds = %96
  call void @llvm.lifetime.end.p0(i64 8, ptr %20) #10
  call void @llvm.lifetime.end.p0(i64 8, ptr %19) #10
  call void @llvm.lifetime.end.p0(i64 4, ptr %18) #10
  call void @llvm.lifetime.end.p0(i64 4, ptr %17) #10
  call void @llvm.lifetime.end.p0(i64 4, ptr %16) #10
  call void @llvm.lifetime.end.p0(i64 4, ptr %15) #10
  call void @llvm.lifetime.end.p0(i64 4, ptr %14) #10
  call void @llvm.lifetime.end.p0(i64 4, ptr %13) #10
  call void @llvm.lifetime.end.p0(i64 4, ptr %12) #10
  br label %137

137:                                              ; preds = %136
  %138 = load i32, ptr %10, align 4, !tbaa !24
  %139 = add nsw i32 %138, 1
  store i32 %139, ptr %10, align 4, !tbaa !24
  br label %26, !llvm.loop !79

140:                                              ; preds = %32
  store i32 1, ptr %11, align 4
  call void @llvm.lifetime.end.p0(i64 8, ptr %9) #10
  ret i32 0
}