; Function Attrs: nofree norecurse nosync nounwind memory(readwrite, inaccessiblemem: none) uwtable
define internal noundef i32 @copy_vertical(ptr noundef readonly captures(none) %0, ptr readnone captures(none) %1, i32 noundef %2, i32 noundef %3) #4 {
  %5 = getelementptr inbounds nuw i8, ptr %0, i64 72
  %6 = load ptr, ptr %5, align 8, !tbaa !4
  %7 = getelementptr inbounds nuw i8, ptr %6, i64 16
  %8 = load i32, ptr %7, align 8, !tbaa !48
  %9 = icmp sgt i32 %8, 0
  br i1 %9, label %.lr.ph, label %._crit_edge

.lr.ph:                                           ; preds = %4
  %10 = getelementptr inbounds nuw i8, ptr %6, i64 4280
  %11 = getelementptr inbounds nuw i8, ptr %6, i64 4312
  %12 = getelementptr inbounds nuw i8, ptr %6, i64 4216
  %13 = getelementptr inbounds nuw i8, ptr %6, i64 4248
  %14 = add nsw i32 %2, 1
  %15 = getelementptr inbounds nuw i8, ptr %6, i64 40
  %16 = getelementptr inbounds nuw i8, ptr %6, i64 4408
  %17 = getelementptr inbounds nuw i8, ptr %6, i64 4376
  %wide.trip.count98 = zext nneg i32 %8 to i64
  br label %18

._crit_edge:                                      ; preds = %._crit_edge48, %4
  ret i32 0

18:                                               ; preds = %.lr.ph, %._crit_edge48
  %indvars.iv95 = phi i64 [ 0, %.lr.ph ], [ %indvars.iv.next96, %._crit_edge48 ]
  %19 = getelementptr inbounds nuw [4 x i64], ptr %10, i64 0, i64 %indvars.iv95
  %20 = load i64, ptr %19, align 8, !tbaa !56
  %21 = trunc i64 %20 to i32
  %22 = getelementptr inbounds nuw [4 x i64], ptr %11, i64 0, i64 %indvars.iv95
  %23 = load i64, ptr %22, align 8, !tbaa !56
  %24 = trunc i64 %23 to i32
  %25 = getelementptr inbounds nuw [4 x i64], ptr %12, i64 0, i64 %indvars.iv95
  %26 = load i64, ptr %25, align 8, !tbaa !56
  %27 = getelementptr inbounds nuw [4 x i64], ptr %13, i64 0, i64 %indvars.iv95
  %28 = load i64, ptr %27, align 8, !tbaa !56
  %29 = mul nsw i32 %2, %21
  %30 = sdiv i32 %29, %3
  %31 = mul nsw i32 %14, %21
  %32 = sdiv i32 %31, %3
  %33 = getelementptr inbounds nuw [4 x i32], ptr %15, i64 0, i64 %indvars.iv95
  %34 = load i32, ptr %33, align 4, !tbaa !20
  %35 = getelementptr inbounds nuw [4 x ptr], ptr %16, i64 0, i64 %indvars.iv95
  %36 = load ptr, ptr %35, align 8, !tbaa !63
  %37 = getelementptr inbounds nuw [4 x ptr], ptr %17, i64 0, i64 %indvars.iv95
  %38 = load ptr, ptr %37, align 8, !tbaa !63
  %39 = icmp slt i32 %30, %32
  br i1 %39, label %.preheader.lr.ph, label %._crit_edge48

.preheader.lr.ph:                                 ; preds = %18
  %40 = icmp sgt i32 %34, 0
  %41 = sub nsw i32 %24, %34
  %42 = icmp sgt i32 %41, 1
  %43 = lshr i32 %41, 1
  %44 = add nsw i32 %43, %34
  %45 = shl nsw i32 %34, 1
  %46 = sext i32 %34 to i64
  %47 = sext i32 %44 to i64
  %sext = shl i64 %23, 32
  %48 = ashr exact i64 %sext, 32
  br i1 %40, label %.preheader.us.preheader, label %.preheader.lr.ph.split

.preheader.us.preheader:                          ; preds = %.preheader.lr.ph
  %sext102 = shl i64 %26, 32
  %49 = ashr exact i64 %sext102, 32
  %50 = sext i32 %30 to i64
  %sext103 = shl i64 %28, 32
  %51 = ashr exact i64 %sext103, 32
  %wide.trip.count93 = sext i32 %32 to i64
  %wide.trip.count88 = zext nneg i32 %34 to i64
  br label %.preheader.us

.preheader.us:                                    ; preds = %.preheader.us.preheader, %copy_rev.exit.us
  %indvars.iv90 = phi i64 [ %50, %.preheader.us.preheader ], [ %indvars.iv.next91, %copy_rev.exit.us ]
  %52 = mul nsw i64 %indvars.iv90, %51
  %invariant.gep = getelementptr float, ptr %36, i64 %indvars.iv90
  %invariant.gep106 = getelementptr float, ptr %38, i64 %52
  br label %68

.lr.ph.i.us:                                      ; preds = %._crit_edge.us, %.lr.ph.i.us
  %indvars.iv.i.us = phi i64 [ %indvars.iv.next.i.us, %.lr.ph.i.us ], [ %46, %._crit_edge.us ]
  %53 = trunc nsw i64 %indvars.iv.i.us to i32
  %54 = xor i32 %53, -1
  %55 = add i32 %45, %54
  %56 = sext i32 %55 to i64
  %57 = getelementptr inbounds float, ptr %71, i64 %56
  %58 = load float, ptr %57, align 4, !tbaa !65
  %59 = getelementptr inbounds nuw float, ptr %71, i64 %indvars.iv.i.us
  store float %58, ptr %59, align 4, !tbaa !65
  %indvars.iv.next.i.us = add nuw nsw i64 %indvars.iv.i.us, 1
  %60 = icmp slt i64 %indvars.iv.next.i.us, %47
  br i1 %60, label %.lr.ph.i.us, label %.preheader.loopexit.i.us, !llvm.loop !80

.preheader.loopexit.i.us:                         ; preds = %.lr.ph.i.us
  %61 = trunc nsw i64 %indvars.iv.next.i.us to i32
  br label %.preheader.i.us

.preheader.i.us:                                  ; preds = %.preheader.loopexit.i.us, %._crit_edge.us
  %.0.lcssa.i.us = phi i32 [ %34, %._crit_edge.us ], [ %61, %.preheader.loopexit.i.us ]
  %62 = icmp slt i32 %.0.lcssa.i.us, %24
  br i1 %62, label %.lr.ph21.preheader.i.us, label %copy_rev.exit.us

.lr.ph21.preheader.i.us:                          ; preds = %.preheader.i.us
  %63 = sext i32 %.0.lcssa.i.us to i64
  br label %.lr.ph21.i.us

.lr.ph21.i.us:                                    ; preds = %.lr.ph21.i.us, %.lr.ph21.preheader.i.us
  %indvars.iv23.i.us = phi i64 [ %63, %.lr.ph21.preheader.i.us ], [ %indvars.iv.next24.i.us, %.lr.ph21.i.us ]
  %64 = sub nsw i64 %48, %indvars.iv23.i.us
  %65 = getelementptr inbounds float, ptr %71, i64 %64
  %66 = load float, ptr %65, align 4, !tbaa !65
  %67 = getelementptr inbounds float, ptr %71, i64 %indvars.iv23.i.us
  store float %66, ptr %67, align 4, !tbaa !65
  %indvars.iv.next24.i.us = add nsw i64 %indvars.iv23.i.us, 1
  %exitcond.not.i.us = icmp eq i64 %indvars.iv.next24.i.us, %48
  br i1 %exitcond.not.i.us, label %copy_rev.exit.us, label %.lr.ph21.i.us, !llvm.loop !81

copy_rev.exit.us:                                 ; preds = %.lr.ph21.i.us, %.preheader.i.us
  %indvars.iv.next91 = add nsw i64 %indvars.iv90, 1
  %exitcond94.not = icmp eq i64 %indvars.iv.next91, %wide.trip.count93
  br i1 %exitcond94.not, label %._crit_edge48, label %.preheader.us, !llvm.loop !82

68:                                               ; preds = %.preheader.us, %68
  %indvars.iv85 = phi i64 [ 0, %.preheader.us ], [ %indvars.iv.next86, %68 ]
  %69 = mul nsw i64 %indvars.iv85, %49
  %gep = getelementptr float, ptr %invariant.gep, i64 %69
  %70 = load float, ptr %gep, align 4, !tbaa !65
  %gep107 = getelementptr float, ptr %invariant.gep106, i64 %indvars.iv85
  store float %70, ptr %gep107, align 4, !tbaa !65
  %indvars.iv.next86 = add nuw nsw i64 %indvars.iv85, 1
  %exitcond89.not = icmp eq i64 %indvars.iv.next86, %wide.trip.count88
  br i1 %exitcond89.not, label %._crit_edge.us, label %68, !llvm.loop !83

._crit_edge.us:                                   ; preds = %68
  %71 = getelementptr inbounds float, ptr %38, i64 %52
  br i1 %42, label %.lr.ph.i.us, label %.preheader.i.us

.preheader.lr.ph.split:                           ; preds = %.preheader.lr.ph
  br i1 %42, label %.preheader.us49.preheader, label %.preheader.lr.ph.split.split

.preheader.us49.preheader:                        ; preds = %.preheader.lr.ph.split
  %72 = sext i32 %30 to i64
  %sext101 = shl i64 %28, 32
  %73 = ashr exact i64 %sext101, 32
  %wide.trip.count83 = sext i32 %32 to i64
  br label %.preheader.us49

.preheader.us49:                                  ; preds = %.preheader.us49.preheader, %copy_rev.exit.us63
  %indvars.iv80 = phi i64 [ %72, %.preheader.us49.preheader ], [ %indvars.iv.next81, %copy_rev.exit.us63 ]
  %74 = mul nsw i64 %indvars.iv80, %73
  %75 = getelementptr inbounds float, ptr %38, i64 %74
  br label %76

76:                                               ; preds = %76, %.preheader.us49
  %indvars.iv.i.us52 = phi i64 [ %46, %.preheader.us49 ], [ %indvars.iv.next.i.us53, %76 ]
  %77 = trunc nsw i64 %indvars.iv.i.us52 to i32
  %78 = xor i32 %77, -1
  %79 = add i32 %45, %78
  %80 = sext i32 %79 to i64
  %81 = getelementptr inbounds float, ptr %75, i64 %80
  %82 = load float, ptr %81, align 4, !tbaa !65
  %83 = getelementptr inbounds float, ptr %75, i64 %indvars.iv.i.us52
  store float %82, ptr %83, align 4, !tbaa !65
  %indvars.iv.next.i.us53 = add nsw i64 %indvars.iv.i.us52, 1
  %84 = icmp slt i64 %indvars.iv.next.i.us53, %47
  br i1 %84, label %76, label %.preheader.loopexit.i.us54, !llvm.loop !80

.preheader.loopexit.i.us54:                       ; preds = %76
  %85 = trunc nsw i64 %indvars.iv.next.i.us53 to i32
  %86 = icmp slt i32 %85, %24
  br i1 %86, label %.lr.ph21.preheader.i.us58, label %copy_rev.exit.us63

.lr.ph21.preheader.i.us58:                        ; preds = %.preheader.loopexit.i.us54
  %sext75 = shl i64 %indvars.iv.next.i.us53, 32
  %87 = ashr exact i64 %sext75, 32
  br label %.lr.ph21.i.us59

.lr.ph21.i.us59:                                  ; preds = %.lr.ph21.i.us59, %.lr.ph21.preheader.i.us58
  %indvars.iv23.i.us60 = phi i64 [ %87, %.lr.ph21.preheader.i.us58 ], [ %indvars.iv.next24.i.us61, %.lr.ph21.i.us59 ]
  %88 = sub nsw i64 %48, %indvars.iv23.i.us60
  %89 = getelementptr inbounds float, ptr %75, i64 %88
  %90 = load float, ptr %89, align 4, !tbaa !65
  %91 = getelementptr inbounds float, ptr %75, i64 %indvars.iv23.i.us60
  store float %90, ptr %91, align 4, !tbaa !65
  %indvars.iv.next24.i.us61 = add nsw i64 %indvars.iv23.i.us60, 1
  %exitcond.not.i.us62 = icmp eq i64 %indvars.iv.next24.i.us61, %48
  br i1 %exitcond.not.i.us62, label %copy_rev.exit.us63, label %.lr.ph21.i.us59, !llvm.loop !81

copy_rev.exit.us63:                               ; preds = %.lr.ph21.i.us59, %.preheader.loopexit.i.us54
  %indvars.iv.next81 = add nsw i64 %indvars.iv80, 1
  %exitcond84.not = icmp eq i64 %indvars.iv.next81, %wide.trip.count83
  br i1 %exitcond84.not, label %._crit_edge48, label %.preheader.us49, !llvm.loop !82

.preheader.lr.ph.split.split:                     ; preds = %.preheader.lr.ph.split
  %92 = icmp slt i32 %34, %24
  br i1 %92, label %.preheader.us65.preheader, label %._crit_edge48

.preheader.us65.preheader:                        ; preds = %.preheader.lr.ph.split.split
  %93 = sext i32 %30 to i64
  %sext100 = shl i64 %28, 32
  %94 = ashr exact i64 %sext100, 32
  %wide.trip.count = sext i32 %32 to i64
  br label %.preheader.us65

.preheader.us65:                                  ; preds = %.preheader.us65.preheader, %copy_rev.exit.loopexit.us73
  %indvars.iv = phi i64 [ %93, %.preheader.us65.preheader ], [ %indvars.iv.next, %copy_rev.exit.loopexit.us73 ]
  %95 = mul nsw i64 %indvars.iv, %94
  %96 = getelementptr inbounds float, ptr %38, i64 %95
  br label %.lr.ph21.i.us68

.lr.ph21.i.us68:                                  ; preds = %.lr.ph21.i.us68, %.preheader.us65
  %indvars.iv23.i.us69 = phi i64 [ %46, %.preheader.us65 ], [ %indvars.iv.next24.i.us70, %.lr.ph21.i.us68 ]
  %97 = sub nsw i64 %48, %indvars.iv23.i.us69
  %98 = getelementptr inbounds float, ptr %96, i64 %97
  %99 = load float, ptr %98, align 4, !tbaa !65
  %100 = getelementptr inbounds float, ptr %96, i64 %indvars.iv23.i.us69
  store float %99, ptr %100, align 4, !tbaa !65
  %indvars.iv.next24.i.us70 = add nsw i64 %indvars.iv23.i.us69, 1
  %exitcond.not.i.us71 = icmp eq i64 %indvars.iv.next24.i.us70, %48
  br i1 %exitcond.not.i.us71, label %copy_rev.exit.loopexit.us73, label %.lr.ph21.i.us68, !llvm.loop !81

copy_rev.exit.loopexit.us73:                      ; preds = %.lr.ph21.i.us68
  %indvars.iv.next = add nsw i64 %indvars.iv, 1
  %exitcond.not = icmp eq i64 %indvars.iv.next, %wide.trip.count
  br i1 %exitcond.not, label %._crit_edge48, label %.preheader.us65, !llvm.loop !82

._crit_edge48:                                    ; preds = %copy_rev.exit.loopexit.us73, %copy_rev.exit.us63, %copy_rev.exit.us, %.preheader.lr.ph.split.split, %18
  %indvars.iv.next96 = add nuw nsw i64 %indvars.iv95, 1
  %exitcond99.not = icmp eq i64 %indvars.iv.next96, %wide.trip.count98
  br i1 %exitcond99.not, label %._crit_edge, label %18, !llvm.loop !84
}